; Function Attrs: mustprogress uwtable
define hidden void @_ZN4cvc58internal6theory4bags19BagsRewriteResponseC2Ev(ptr noundef nonnull writeonly align 8 captures(none) dereferenceable(12) initializes((0, 12)) %0) unnamed_addr #3 align 2 {
  tail call void @llvm.experimental.noalias.scope.decl(metadata !3)
  %2 = load ptr, ptr @_ZN4cvc58internal12NodeTemplateILb1EE6s_nullE, align 8, !tbaa !6, !noalias !3
  store ptr %2, ptr %0, align 8, !tbaa !6, !alias.scope !3
  %3 = load i64, ptr %2, align 8, !noalias !3
  %4 = lshr i64 %3, 40
  %5 = trunc nuw nsw i64 %4 to i32
  %6 = and i32 %5, 1048575
  %7 = icmp samesign ult i32 %6, 1048574
  br i1 %7, label %8, label %13, !prof !12

8:                                                ; preds = %1
  %9 = add i64 %3, 1099511627776
  %10 = and i64 %9, 1152920405095219200
  %11 = and i64 %3, -1152920405095219201
  %12 = or disjoint i64 %10, %11
  store i64 %12, ptr %2, align 8, !noalias !3
  br label %_ZN4cvc58internal12NodeTemplateILb1EE4nullEv.exit

13:                                               ; preds = %1
  %14 = icmp eq i32 %6, 1048574
  br i1 %14, label %15, label %_ZN4cvc58internal12NodeTemplateILb1EE4nullEv.exit, !prof !13

15:                                               ; preds = %13
  %16 = or i64 %3, 1152920405095219200
  store i64 %16, ptr %2, align 8, !noalias !3
  tail call void @_ZN4cvc58internal4expr9NodeValue20markRefCountMaxedOutEv(ptr noundef nonnull align 8 dereferenceable(24) %2), !noalias !3
  br label %_ZN4cvc58internal12NodeTemplateILb1EE4nullEv.exit

_ZN4cvc58internal12NodeTemplateILb1EE4nullEv.exit: ; preds = %8, %13, %15
  %17 = getelementptr inbounds nuw i8, ptr %0, i64 8
  store i32 0, ptr %17, align 8, !tbaa !14
  ret void
}